(dp0
S'flippers'
p1
(dp2
I0
S'no'
p3
sI1
(dp4
S'no surfacing'
p5
(dp6
I0
(dp7
S'another'
p8
(dp9
I0
S'yes'
p10
sI1
(dp11
S'head'
p12
(dp13
I0
g10
sI1
S'noaksjdh'
p14
sssssI1
g10
sssI2
(dp15
g8
(dp16
I0
g3
sI1
g10
ssss.