(dp0
S'Silicon'
p1
(dp2
F21.78
(dp3
S'Potassium'
p4
(dp5
F1.06
(dp6
S'Iron'
p7
(dp8
F0.0
S'Barium'
p9
sF2.0
S'Sodium'
p10
sssF0.06
S'Calcium'
p11
sssF71.78
(dp12
S'Magnesium'
p13
(dp14
F4.49
(dp15
S'Sodium'
p16
(dp17
F13.64
g10
sF3.64
S'Magnesium'
p18
sssF14.49
(dp19
S'Aluminum'
p20
(dp21
F2.1
S',Potassium'
p22
sF1.1
S'Aluminum Silicon'
p23
sssssF72.73
S'Iron'
p24
ss.